target datalayout = "e-m:e-p270:32:32-p271:32:32-p272:64:64-i64:64-i128:128-f80:128-n8:16:32:64-S128"
target triple = "x86_64-unknown-linux-gnu"

@zmalloc_oom_handler = internal global ptr @zmalloc_default_oom, align 8
@used_memory = internal global i64 0, align 8

; Function Attrs: nounwind uwtable
define internal ptr @ztrymalloc_usable_internal(i64 noundef %size, ptr noundef %usable) #0 {
entry:
  %retval = alloca ptr, align 8
  %size.addr = alloca i64, align 8
  %usable.addr = alloca ptr, align 8
  %ptr = alloca ptr, align 8
  %.atomictmp = alloca i64, align 8
  %atomic-temp = alloca i64, align 8
  store i64 %size, ptr %size.addr, align 8
  store ptr %usable, ptr %usable.addr, align 8
  %0 = load i64, ptr %size.addr, align 8
  %cmp = icmp uge i64 %0, 9223372036854775807
  br i1 %cmp, label %if.then, label %if.end

if.then:                                          ; preds = %entry
  store ptr null, ptr %retval, align 8
  br label %return

if.end:                                           ; preds = %entry
  %1 = load i64, ptr %size.addr, align 8
  %cmp1 = icmp ugt i64 %1, 0
  br i1 %cmp1, label %cond.true, label %cond.false

cond.true:                                        ; preds = %if.end
  %2 = load i64, ptr %size.addr, align 8
  br label %cond.end

cond.false:                                       ; preds = %if.end
  br label %cond.end

cond.end:                                         ; preds = %cond.false, %cond.true
  %cond = phi i64 [ %2, %cond.true ], [ 8, %cond.false ]
  %add = add i64 %cond, 0
  %call = call noalias ptr @je_malloc(i64 noundef %add) #14
  store ptr %call, ptr %ptr, align 8
  %3 = load ptr, ptr %ptr, align 8
  %tobool = icmp ne ptr %3, null
  br i1 %tobool, label %if.end3, label %if.then2

if.then2:                                         ; preds = %cond.end
  store ptr null, ptr %retval, align 8
  br label %return

if.end3:                                          ; preds = %cond.end
  %4 = load ptr, ptr %ptr, align 8
  %call4 = call i64 @je_malloc_usable_size(ptr noundef %4) #12
  store i64 %call4, ptr %size.addr, align 8
  %5 = load i64, ptr %size.addr, align 8
  store i64 %5, ptr %.atomictmp, align 8
  %6 = load i64, ptr %.atomictmp, align 8
  %7 = atomicrmw add ptr @used_memory, i64 %6 monotonic, align 8
  store i64 %7, ptr %atomic-temp, align 8
  %8 = load ptr, ptr %usable.addr, align 8
  %tobool5 = icmp ne ptr %8, null
  br i1 %tobool5, label %if.then6, label %if.end7

if.then6:                                         ; preds = %if.end3
  %9 = load i64, ptr %size.addr, align 8
  %10 = load ptr, ptr %usable.addr, align 8
  store i64 %9, ptr %10, align 8
  br label %if.end7

if.end7:                                          ; preds = %if.then6, %if.end3
  %11 = load ptr, ptr %ptr, align 8
  store ptr %11, ptr %retval, align 8
  br label %return

return:                                           ; preds = %if.end7, %if.then2, %if.then
  %12 = load ptr, ptr %retval, align 8
  ret ptr %12
}

; Function Attrs: nounwind allocsize(0) uwtable
define dso_local noalias ptr @zmalloc(i64 noundef %size) #3 {
entry:
  %size.addr = alloca i64, align 8
  %ptr = alloca ptr, align 8
  store i64 %size, ptr %size.addr, align 8
  %0 = load i64, ptr %size.addr, align 8
  %call = call ptr @ztrymalloc_usable_internal(i64 noundef %0, ptr noundef null)
  store ptr %call, ptr %ptr, align 8
  %1 = load ptr, ptr %ptr, align 8
  %tobool = icmp ne ptr %1, null
  br i1 %tobool, label %if.end, label %if.then

if.then:                                          ; preds = %entry
  %2 = load ptr, ptr @zmalloc_oom_handler, align 8
  %3 = load i64, ptr %size.addr, align 8
  call void %2(i64 noundef %3)
  br label %if.end

if.end:                                           ; preds = %if.then, %entry
  %4 = load ptr, ptr %ptr, align 8
  ret ptr %4
}

; Function Attrs: nounwind uwtable
define dso_local noalias ptr @zstrdup(ptr noundef %s) #0 {
entry:
  %s.addr = alloca ptr, align 8
  %l = alloca i64, align 8
  %p = alloca ptr, align 8
  store ptr %s, ptr %s.addr, align 8
  %0 = load ptr, ptr %s.addr, align 8
  %call = call i64 @strlen(ptr noundef %0) #17
  %add = add i64 %call, 1
  store i64 %add, ptr %l, align 8
  %1 = load i64, ptr %l, align 8
  %call1 = call noalias ptr @zmalloc(i64 noundef %1) #18
  store ptr %call1, ptr %p, align 8
  %2 = load ptr, ptr %p, align 8
  %3 = load ptr, ptr %s.addr, align 8
  %4 = load i64, ptr %l, align 8
  call void @llvm.memcpy.p0.p0.i64(ptr align 1 %2, ptr align 1 %3, i64 %4, i1 false)
  %5 = load ptr, ptr %p, align 8
  ret ptr %5
}