; Function Attrs: nounwind uwtable
define dso_local noalias ptr @zstrdup(ptr nocapture noundef readonly %s) local_unnamed_addr #3 {
entry:
  %call = tail call i64 @strlen(ptr noundef nonnull dereferenceable(1) %s) #28
  %add = add i64 %call, 1
  %cmp.i.i = icmp ugt i64 %add, 9223372036854775806
  br i1 %cmp.i.i, label %if.then.i, label %if.end.i.i

if.end.i.i:                                       ; preds = %entry
  %cmp1.not.i.i = icmp eq i64 %add, 0
  %cond.i.i = select i1 %cmp1.not.i.i, i64 8, i64 %add
  %call.i.i = tail call noalias ptr @je_malloc(i64 noundef %cond.i.i) #25
  %tobool.not.i.i = icmp eq ptr %call.i.i, null
  br i1 %tobool.not.i.i, label %if.then.i, label %ztrymalloc_usable_internal.exit.i

ztrymalloc_usable_internal.exit.i:                ; preds = %if.end.i.i
  %call4.i.i = tail call i64 @je_malloc_usable_size(ptr noundef nonnull %call.i.i) #24
  %0 = atomicrmw add ptr @used_memory, i64 %call4.i.i monotonic, align 8
  br label %zmalloc.exit

if.then.i:                                        ; preds = %if.end.i.i, %entry
  %1 = load ptr, ptr @zmalloc_oom_handler, align 8
  tail call void %1(i64 noundef %add) #24
  br label %zmalloc.exit

zmalloc.exit:                                     ; preds = %ztrymalloc_usable_internal.exit.i, %if.then.i
  %retval.0.i5.i = phi ptr [ null, %if.then.i ], [ %call.i.i, %ztrymalloc_usable_internal.exit.i ]
  tail call void @llvm.memcpy.p0.p0.i64(ptr align 1 %retval.0.i5.i, ptr align 1 %s, i64 %add, i1 false)
  ret ptr %retval.0.i5.i
}